
Hexadecimal

Area                               Addr   Size   Decimal Bytes (Attributes)
--------------------------------   ----   ----   ------- ----- ------------
CABS                               0000   0000 =      0. bytes (ABS,CON,CODE)

      Value  Global
   --------  --------------------------------
  0C:FFFFFF00    s_BSEG
  0C:0000    l_BIT_BANK
  0C:0000    l_BSEG
  0C:0000    l_BSEG_BYTES
  0C:0000    l_CABS
  0C:0000    l_CONST
  0C:0000    l_GSINIT1
  0C:0000    l_GSINIT5
  0C:0000    l_IABS
  0C:0000    l_ISEG
  0C:0000    l_PSEG
  0C:0000    l_REG_BANK_1
  0C:0000    l_REG_BANK_2
  0C:0000    l_REG_BANK_3
  0C:0000    l_RSEG
  0C:0000    l_XABS
  0C:0000    l_XINIT
  0C:0000    l_XISEG
  0C:0000    l_XSEG
  0C:0000    l__CODE
  0C:0000    s_BSEG_BYTES
  0C:0000    s_CABS
  0C:0000    s_DSEG
  0C:0000    s_HOME
  0C:0000    s_IABS
  0C:0000    s_ISEG
  0C:0000    s_PSEG
  0C:0000    s_REG_BANK_0
  0C:0000    s_XABS
  0C:0000    s_XABS0
  0C:0000    s_XABS1
  0C:0000    s_XABS2
  0C:0000    s_XABS3
  0C:0000    s_XISEG
  0C:0000    s_XSEG
  0C:0002    l_OSEG
  0C:0003    l_GSFINAL
  0C:0003    l_GSINIT0
  0C:0008    l_HOME
  0C:0008    l_REG_BANK_0
  0C:0008    s_GSINIT0
  0C:0008    s_REG_BANK_1
  0C:000A    l_GSINIT2
  0C:000B    s_GSINIT1
  0C:000B    s_GSINIT2
  0C:0010    s_REG_BANK_2
  0C:0013    l_SSEG
  0C:0015    s_GSINIT3
  0C:0018    s_BIT_BANK
  0C:0018    s_REG_BANK_3
  0C:0020    s__CODE
  0C:0022    l_GSINIT3
  0C:002A    l_GSINIT4
  0C:0037    s_GSINIT4
  0C:0061    s_GSINIT
  0C:0061    s_GSINIT5
  0C:006B    s_OSEG
  0C:006D    s_RSEG
  0C:006D    s_SSEG
  0C:0080    l_DSEG
  0C:0080    l_IRAM
  0C:0080    l_XABS0
  0C:0080    l_XABS1
  0C:0080    l_XABS2
  0C:0080    l_XABS3
  0C:056B    l_CSEG
  0C:0BFF    l_GSINIT
  0C:0C60    s_GSFINAL
  0C:0C63    s_CSEG
  0C:11CE    s_CONST
  0C:11CE    s_XINIT

Hexadecimal

Area                               Addr   Size   Decimal Bytes (Attributes)
--------------------------------   ----   ----   ------- ----- ------------
XABS3                              0000   0080 =    128. bytes (ABS,CON,XDATA)

      Value  Global
   --------  --------------------------------
  0D:0180    _sprime

Hexadecimal

Area                               Addr   Size   Decimal Bytes (Attributes)
--------------------------------   ----   ----   ------- ----- ------------
XABS2                              0000   0080 =    128. bytes (ABS,CON,XDATA)

      Value  Global
   --------  --------------------------------
  0D:0100    _m
  0D:0180    G$sprime$0$0

Hexadecimal

Area                               Addr   Size   Decimal Bytes (Attributes)
--------------------------------   ----   ----   ------- ----- ------------
XABS1                              0000   0080 =    128. bytes (ABS,CON,XDATA)

      Value  Global
   --------  --------------------------------
  0D:0080    _y
  0D:0100    G$m$0$0

Hexadecimal

Area                               Addr   Size   Decimal Bytes (Attributes)
--------------------------------   ----   ----   ------- ----- ------------
XABS0                              0000   0080 =    128. bytes (ABS,CON,XDATA)

      Value  Global
   --------  --------------------------------
  0D:0000    _x
  0D:0080    G$y$0$0

Hexadecimal

Area                               Addr   Size   Decimal Bytes (Attributes)
--------------------------------   ----   ----   ------- ----- ------------
XABS                               0000   0000 =      0. bytes (ABS,CON,XDATA)

      Value  Global
   --------  --------------------------------
  0D:0000    G$x$0$0


Hexadecimal

Area                               Addr   Size   Decimal Bytes (Attributes)
--------------------------------   ----   ----   ------- ----- ------------
.  .ABS.                           0000   0000 =      0. bytes (ABS,CON)

      Value  Global
   --------  --------------------------------
     0080    G$P0$0$0
     0080    G$P0_0$0$0
     0080    _P0
     0080    _P0_0
     0081    G$P0_1$0$0
     0081    G$SP$0$0
     0081    _P0_1
     0081    _SP
     0082    G$DPL$0$0
     0082    G$P0_2$0$0
     0082    _DPL
     0082    _P0_2
     0083    G$DPH$0$0
     0083    G$P0_3$0$0
     0083    _DPH
     0083    _P0_3
     0084    G$P0_4$0$0
     0084    _P0_4
     0085    G$P0_5$0$0
     0085    _P0_5
     0086    G$P0_6$0$0
     0086    _P0_6
     0087    G$P0_7$0$0
     0087    G$PCON$0$0
     0087    _P0_7
     0087    _PCON
     0088    G$IT0$0$0
     0088    G$TCON$0$0
     0088    _IT0
     0088    _TCON
     0089    G$IE0$0$0
     0089    G$TMOD$0$0
     0089    _IE0
     0089    _TMOD
     008A    G$IT1$0$0
     008A    G$TL0$0$0
     008A    _IT1
     008A    _TL0
     008B    G$IE1$0$0
     008B    G$TL1$0$0
     008B    _IE1
     008B    _TL1
     008C    G$TH0$0$0
     008C    G$TR0$0$0
     008C    _TH0
     008C    _TR0
     008D    G$TF0$0$0
     008D    G$TH1$0$0
     008D    _TF0
     008D    _TH1
     008E    G$TR1$0$0
     008E    _TR1
     008F    G$TF1$0$0
     008F    _TF1
     0090    G$P1$0$0
     0090    G$P1_0$0$0
     0090    _P1
     0090    _P1_0
     0091    G$P1_1$0$0
     0091    _P1_1
     0092    G$P1_2$0$0
     0092    _P1_2
     0093    G$P1_3$0$0
     0093    _P1_3
     0094    G$P1_4$0$0
     0094    _P1_4
     0095    G$P1_5$0$0
     0095    _P1_5
     0096    G$P1_6$0$0
     0096    _P1_6
     0097    G$P1_7$0$0
     0097    _P1_7
     0098    G$RI$0$0
     0098    G$SCON$0$0
     0098    _RI
     0098    _SCON
     0099    G$SBUF$0$0
     0099    G$TI$0$0
     0099    _SBUF
     0099    _TI
     009A    G$RB8$0$0
     009A    _RB8
     009B    G$TB8$0$0
     009B    _TB8
     009C    G$REN$0$0
     009C    _REN
     009D    G$SM2$0$0
     009D    _SM2
     009E    G$SM1$0$0
     009E    _SM1
     009F    G$SM0$0$0
     009F    _SM0
     00A0    G$P2$0$0
     00A0    G$P2_0$0$0
     00A0    _P2
     00A0    _P2_0
     00A0    __XPAGE
     00A1    G$P2_1$0$0
     00A1    _P2_1
     00A2    G$P2_2$0$0
     00A2    _P2_2
     00A3    G$P2_3$0$0
     00A3    _P2_3
     00A4    G$P2_4$0$0
     00A4    _P2_4
     00A5    G$P2_5$0$0
     00A5    _P2_5
     00A6    G$P2_6$0$0
     00A6    _P2_6
     00A7    G$P2_7$0$0
     00A7    _P2_7
     00A8    G$EX0$0$0
     00A8    G$IE$0$0
     00A8    _EX0
     00A8    _IE
     00A9    G$ET0$0$0
     00A9    _ET0
     00AA    G$EX1$0$0
     00AA    _EX1
     00AB    G$ET1$0$0
     00AB    _ET1
     00AC    G$ES$0$0
     00AC    _ES
     00AF    G$EA$0$0
     00AF    _EA
     00B0    G$P3$0$0
     00B0    G$P3_0$0$0
     00B0    G$RXD$0$0
     00B0    _P3
     00B0    _P3_0
     00B0    _RXD
     00B1    G$P3_1$0$0
     00B1    G$TXD$0$0
     00B1    _P3_1
     00B1    _TXD
     00B2    G$INT0$0$0
     00B2    G$P3_2$0$0
     00B2    _INT0
     00B2    _P3_2
     00B3    G$INT1$0$0
     00B3    G$P3_3$0$0
     00B3    _INT1
     00B3    _P3_3
     00B4    G$P3_4$0$0
     00B4    G$T0$0$0
     00B4    _P3_4
     00B4    _T0
     00B5    G$P3_5$0$0
     00B5    G$T1$0$0
     00B5    _P3_5
     00B5    _T1
     00B6    G$P3_6$0$0
     00B6    G$WR$0$0
     00B6    _P3_6
     00B6    _WR
     00B7    G$P3_7$0$0
     00B7    G$RD$0$0
     00B7    _P3_7
     00B7    _RD
     00B8    G$IP$0$0
     00B8    G$PX0$0$0
     00B8    _IP
     00B8    _PX0
     00B9    G$PT0$0$0
     00B9    _PT0
     00BA    G$PX1$0$0
     00BA    _PX1
     00BB    G$PT1$0$0
     00BB    _PT1
     00BC    G$PS$0$0
     00BC    _PS
     00D0    G$P$0$0
     00D0    G$PSW$0$0
     00D0    _P
     00D0    _PSW
     00D1    G$F1$0$0
     00D1    _F1
     00D2    G$OV$0$0
     00D2    _OV
     00D3    G$RS0$0$0
     00D3    _RS0
     00D4    G$RS1$0$0
     00D4    _RS1
     00D5    G$F0$0$0
     00D5    _F0
     00D6    G$AC$0$0
     00D6    _AC
     00D7    G$CY$0$0
     00D7    _CY
     00E0    G$ACC$0$0
     00E0    _ACC
     00F0    G$B$0$0
     00F0    _B
     00F5    _B_5
     00F6    _B_6
     00F7    _B_7
     0300    G$resA$0$0
     0300    _resA
     0400    G$resS$0$0
     0400    _resS
     0500    G$resM$0$0
     0500    _resM
     FFFE    G$startBrk$0$0
     FFFE    _startBrk
     FFFF    G$endBrk$0$0
     FFFF    _endBrk









Hexadecimal

Area                               Addr   Size   Decimal Bytes (Attributes)
--------------------------------   ----   ----   ------- ----- ------------
DSEG                               0000   0080 =    128. bytes (REL,CON)

      Value  Global
   --------  --------------------------------
     0008    G$c$0$0
     0008    _c
     0009    G$cA$0$0
     0009    _cA
     000A    G$temp$0$0
     000A    _temp
     000C    G$i$0$0
     000C    _i
     000E    Lmp_addition$in1$1$1
     000E    _mp_addition_PARM_2
     0011    Lmp_addition$in2$1$1
     0011    _mp_addition_PARM_3
     0014    Lmp_addition$res$1$1
     0017    Lmp_substraction$in1$1$1
     0017    _mp_substraction_PARM_2
     001A    Lmp_substraction$in2$1$1
     001A    _mp_substraction_PARM_3
     001D    Lmp_substraction$res$1$1
     0020    Lmp_multiplication$in1$1$1
     0020    _mp_multiplication_PARM_2
     0023    Lmp_multiplication$in2$1$1
     0023    _mp_multiplication_PARM_3
     0026    Lmp_multiplication$res$1$1
     0029    Lmp_multiplication$c$1$1
     002B    Lmp_multiplication$i$1$1
     002D    Lmp_multiplication$j$1$1
     002F    Lmp_multiplication$temp$1$1
     0033    Lmp_multiplication$sloc0$1$0
     0035    Lcopy$in$1$1
     0035    _copy_PARM_2
     0038    Lcopy$res$1$1
     003B    Lmd_addition$in1$1$1
     003B    _md_addition_PARM_2
     003E    Lmd_addition$in2$1$1
     003E    _md_addition_PARM_3
     0041    Lmd_addition$m$1$1
     0041    _md_addition_PARM_4
     0044    Lmd_addition$temp$1$1
     0044    _md_addition_PARM_5
     0047    Lmd_substraction$in1$1$1
     0047    _md_substraction_PARM_2
     004A    Lmd_substraction$in2$1$1
     004A    _md_substraction_PARM_3
     004D    Lmd_substraction$m$1$1
     004D    _md_substraction_PARM_4
     0050    Lmd_multiplication$in1$1$1
     0050    _md_multiplication_PARM_2
     0053    Lmd_multiplication$in2$1$1
     0053    _md_multiplication_PARM_3
     0056    Lmd_multiplication$m$1$1
     0056    _md_multiplication_PARM_4
     0059    Lmd_multiplication$sp$1$1
     0059    _md_multiplication_PARM_5
     005C    Lmd_multiplication$res$1$1
     005F    Lmd_multiplication$i$1$1
     0061    Lmd_multiplication$j$1$1
     0063    Lmd_multiplication$mm$1$1
     0065    Lmd_multiplication$cl$1$1
     0067    Lmd_multiplication$temp$1$1

Hexadecimal

Area                               Addr   Size   Decimal Bytes (Attributes)
--------------------------------   ----   ----   ------- ----- ------------
OSEG                               006B   0002 =      2. bytes (REL,OVR)

      Value  Global
   --------  --------------------------------
     006B    __gptrput_PARM_2
     006B    __mulint_PARM_2


Hexadecimal

Area                               Addr   Size   Decimal Bytes (Attributes)
--------------------------------   ----   ----   ------- ----- ------------
SSEG                               006D   0013 =     19. bytes (REL,OVR)

      Value  Global
   --------  --------------------------------
     006D    __start__stack





Hexadecimal

Area                               Addr   Size   Decimal Bytes (Attributes)
--------------------------------   ----   ----   ------- ----- ------------
HOME                               0000   0008 =      8. bytes (REL,CON,CODE)

      Value  Global
   --------  --------------------------------
  0C:0000    A$main$548
  0C:0003    A$main$2118
  0C:0003    __sdcc_program_startup
  0C:0006    A$main$2120

Hexadecimal

Area                               Addr   Size   Decimal Bytes (Attributes)
--------------------------------   ----   ----   ------- ----- ------------
GSINIT0                            0008   0003 =      3. bytes (REL,CON,CODE)

      Value  Global
   --------  --------------------------------
  0C:0008    __sdcc_gsinit_startup



Hexadecimal

Area                               Addr   Size   Decimal Bytes (Attributes)
--------------------------------   ----   ----   ------- ----- ------------
GSINIT3                            0015   0022 =     34. bytes (REL,CON,CODE)

      Value  Global
   --------  --------------------------------
  0C:0015    __mcs51_genXINIT

Hexadecimal

Area                               Addr   Size   Decimal Bytes (Attributes)
--------------------------------   ----   ----   ------- ----- ------------
GSINIT4                            0037   002A =     42. bytes (REL,CON,CODE)

      Value  Global
   --------  --------------------------------
  0C:0037    __mcs51_genRAMCLEAR
  0C:003D    __mcs51_genXRAMCLEAR


Hexadecimal

Area                               Addr   Size   Decimal Bytes (Attributes)
--------------------------------   ----   ----   ------- ----- ------------
GSINIT                             0061   0BFF =   3071. bytes (REL,CON,CODE)

      Value  Global
   --------  --------------------------------
  0C:0061    A$main$565
  0C:0061    C$main.c$22$1$1
  0C:0064    A$main$566
  0C:0066    A$main$567
  0C:0067    A$main$568
  0C:006A    A$main$569
  0C:006C    A$main$570
  0C:006D    A$main$571
  0C:0070    A$main$572
  0C:0072    A$main$573
  0C:0073    A$main$574
  0C:0076    A$main$575
  0C:0078    A$main$576
  0C:0079    A$main$577
  0C:007C    A$main$578
  0C:007E    A$main$579
  0C:007F    A$main$580
  0C:0082    A$main$581
  0C:0084    A$main$582
  0C:0085    A$main$583
  0C:0088    A$main$584
  0C:008A    A$main$585
  0C:008B    A$main$586
  0C:008E    A$main$587
  0C:0090    A$main$588
  0C:0091    A$main$589
  0C:0094    A$main$590
  0C:0096    A$main$591
  0C:0097    A$main$592
  0C:009A    A$main$593
  0C:009C    A$main$594
  0C:009D    A$main$595
  0C:00A0    A$main$596
  0C:00A2    A$main$597
  0C:00A3    A$main$598
  0C:00A6    A$main$599
  0C:00A8    A$main$600
  0C:00A9    A$main$601
  0C:00AC    A$main$602
  0C:00AE    A$main$603
  0C:00AF    A$main$604
  0C:00B2    A$main$605
  0C:00B4    A$main$606
  0C:00B5    A$main$607
  0C:00B8    A$main$608
  0C:00BA    A$main$609
  0C:00BB    A$main$610
  0C:00BE    A$main$611
  0C:00C0    A$main$612
  0C:00C1    A$main$613
  0C:00C4    A$main$614
  0C:00C6    A$main$615
  0C:00C7    A$main$616
  0C:00CA    A$main$617
  0C:00CC    A$main$618
  0C:00CD    A$main$619
  0C:00D0    A$main$620
  0C:00D2    A$main$621
  0C:00D3    A$main$622
  0C:00D6    A$main$623
  0C:00D8    A$main$624
  0C:00D9    A$main$625
  0C:00DC    A$main$626
  0C:00DE    A$main$627
  0C:00DF    A$main$628
  0C:00E2    A$main$629
  0C:00E4    A$main$630
  0C:00E5    A$main$631
  0C:00E8    A$main$632
  0C:00EA    A$main$633
  0C:00EB    A$main$634
  0C:00EE    A$main$635
  0C:00F0    A$main$636
  0C:00F1    A$main$637
  0C:00F4    A$main$638
  0C:00F6    A$main$639
  0C:00F7    A$main$640
  0C:00FA    A$main$641
  0C:00FC    A$main$642
  0C:00FD    A$main$643
  0C:0100    A$main$644
  0C:0102    A$main$645
  0C:0103    A$main$646
  0C:0106    A$main$647
  0C:0108    A$main$648
  0C:0109    A$main$649
  0C:010C    A$main$650
  0C:010E    A$main$651
  0C:010F    A$main$652
  0C:0112    A$main$653
  0C:0114    A$main$654
  0C:0115    A$main$655
  0C:0118    A$main$656
  0C:011A    A$main$657
  0C:011B    A$main$658
  0C:011E    A$main$659
  0C:0120    A$main$660
  0C:0121    A$main$661
  0C:0124    A$main$662
  0C:0126    A$main$663
  0C:0127    A$main$664
  0C:012A    A$main$665
  0C:012C    A$main$666
  0C:012D    A$main$667
  0C:0130    A$main$668
  0C:0132    A$main$669
  0C:0133    A$main$670
  0C:0136    A$main$671
  0C:0138    A$main$672
  0C:0139    A$main$673
  0C:013C    A$main$674
  0C:013E    A$main$675
  0C:013F    A$main$676
  0C:0142    A$main$677
  0C:0144    A$main$678
  0C:0145    A$main$679
  0C:0148    A$main$680
  0C:014A    A$main$681
  0C:014B    A$main$682
  0C:014E    A$main$683
  0C:0150    A$main$684
  0C:0151    A$main$685
  0C:0154    A$main$686
  0C:0156    A$main$687
  0C:0157    A$main$688
  0C:015A    A$main$689
  0C:015C    A$main$690
  0C:015D    A$main$691
  0C:0160    A$main$692
  0C:0162    A$main$693
  0C:0163    A$main$694
  0C:0166    A$main$695
  0C:0168    A$main$696
  0C:0169    A$main$697
  0C:016C    A$main$698
  0C:016E    A$main$699
  0C:016F    A$main$700
  0C:0172    A$main$701
  0C:0174    A$main$702
  0C:0175    A$main$703
  0C:0178    A$main$704
  0C:017A    A$main$705
  0C:017B    A$main$706
  0C:017E    A$main$707
  0C:0180    A$main$708
  0C:0181    A$main$709
  0C:0184    A$main$710
  0C:0186    A$main$711
  0C:0187    A$main$712
  0C:018A    A$main$713
  0C:018C    A$main$714
  0C:018D    A$main$715
  0C:0190    A$main$716
  0C:0192    A$main$717
  0C:0193    A$main$718
  0C:0196    A$main$719
  0C:0198    A$main$720
  0C:0199    A$main$721
  0C:019C    A$main$722
  0C:019E    A$main$723
  0C:019F    A$main$724
  0C:01A2    A$main$725
  0C:01A4    A$main$726
  0C:01A5    A$main$727
  0C:01A8    A$main$728
  0C:01AA    A$main$729
  0C:01AB    A$main$730
  0C:01AE    A$main$731
  0C:01B0    A$main$732
  0C:01B1    A$main$733
  0C:01B4    A$main$734
  0C:01B6    A$main$735
  0C:01B7    A$main$736
  0C:01BA    A$main$737
  0C:01BC    A$main$738
  0C:01BD    A$main$739
  0C:01C0    A$main$740
  0C:01C2    A$main$741
  0C:01C3    A$main$742
  0C:01C6    A$main$743
  0C:01C8    A$main$744
  0C:01C9    A$main$745
  0C:01CC    A$main$746
  0C:01CE    A$main$747
  0C:01CF    A$main$748
  0C:01D2    A$main$749
  0C:01D4    A$main$750
  0C:01D5    A$main$751
  0C:01D8    A$main$752
  0C:01DA    A$main$753
  0C:01DB    A$main$754
  0C:01DE    A$main$755
  0C:01E0    A$main$756
  0C:01E1    A$main$757
  0C:01E4    A$main$758
  0C:01E6    A$main$759
  0C:01E7    A$main$760
  0C:01EA    A$main$761
  0C:01EC    A$main$762
  0C:01ED    A$main$763
  0C:01F0    A$main$764
  0C:01F2    A$main$765
  0C:01F3    A$main$766
  0C:01F6    A$main$767
  0C:01F8    A$main$768
  0C:01F9    A$main$769
  0C:01FC    A$main$770
  0C:01FE    A$main$771
  0C:01FF    A$main$772
  0C:0202    A$main$773
  0C:0204    A$main$774
  0C:0205    A$main$775
  0C:0208    A$main$776
  0C:020A    A$main$777
  0C:020B    A$main$778
  0C:020E    A$main$779
  0C:0210    A$main$780
  0C:0211    A$main$781
  0C:0214    A$main$782
  0C:0216    A$main$783
  0C:0217    A$main$784
  0C:021A    A$main$785
  0C:021C    A$main$786
  0C:021D    A$main$787
  0C:0220    A$main$788
  0C:0222    A$main$789
  0C:0223    A$main$790
  0C:0226    A$main$791
  0C:0228    A$main$792
  0C:0229    A$main$793
  0C:022C    A$main$794
  0C:022E    A$main$795
  0C:022F    A$main$796
  0C:0232    A$main$797
  0C:0234    A$main$798
  0C:0235    A$main$799
  0C:0238    A$main$800
  0C:023A    A$main$801
  0C:023B    A$main$802
  0C:023E    A$main$803
  0C:0240    A$main$804
  0C:0241    A$main$805
  0C:0244    A$main$806
  0C:0246    A$main$807
  0C:0247    A$main$808
  0C:024A    A$main$809
  0C:024C    A$main$810
  0C:024D    A$main$811
  0C:0250    A$main$812
  0C:0252    A$main$813
  0C:0253    A$main$814
  0C:0256    A$main$815
  0C:0258    A$main$816
  0C:0259    A$main$817
  0C:025C    A$main$818
  0C:025E    A$main$819
  0C:025F    A$main$820
  0C:0262    A$main$821
  0C:0264    A$main$822
  0C:0265    A$main$823
  0C:0268    A$main$824
  0C:026A    A$main$825
  0C:026B    A$main$826
  0C:026E    A$main$827
  0C:0270    A$main$828
  0C:0271    A$main$829
  0C:0274    A$main$830
  0C:0276    A$main$831
  0C:0277    A$main$832
  0C:027A    A$main$833
  0C:027C    A$main$834
  0C:027D    A$main$835
  0C:0280    A$main$836
  0C:0282    A$main$837
  0C:0283    A$main$838
  0C:0286    A$main$839
  0C:0288    A$main$840
  0C:0289    A$main$841
  0C:028C    A$main$842
  0C:028E    A$main$843
  0C:028F    A$main$844
  0C:0292    A$main$845
  0C:0294    A$main$846
  0C:0295    A$main$847
  0C:0298    A$main$848
  0C:029A    A$main$849
  0C:029B    A$main$850
  0C:029E    A$main$851
  0C:02A0    A$main$852
  0C:02A1    A$main$853
  0C:02A4    A$main$854
  0C:02A6    A$main$855
  0C:02A7    A$main$856
  0C:02AA    A$main$857
  0C:02AC    A$main$858
  0C:02AD    A$main$859
  0C:02B0    A$main$860
  0C:02B2    A$main$861
  0C:02B3    A$main$862
  0C:02B6    A$main$863
  0C:02B8    A$main$864
  0C:02B9    A$main$865
  0C:02BC    A$main$866
  0C:02BE    A$main$867
  0C:02BF    A$main$868
  0C:02C2    A$main$869
  0C:02C4    A$main$870
  0C:02C5    A$main$871
  0C:02C8    A$main$872
  0C:02CA    A$main$873
  0C:02CB    A$main$874
  0C:02CE    A$main$875
  0C:02D0    A$main$876
  0C:02D1    A$main$877
  0C:02D4    A$main$878
  0C:02D6    A$main$879
  0C:02D7    A$main$880
  0C:02DA    A$main$881
  0C:02DC    A$main$882
  0C:02DD    A$main$883
  0C:02E0    A$main$884
  0C:02E2    A$main$885
  0C:02E3    A$main$886
  0C:02E6    A$main$887
  0C:02E8    A$main$888
  0C:02E9    A$main$889
  0C:02EC    A$main$890
  0C:02EE    A$main$891
  0C:02EF    A$main$892
  0C:02F2    A$main$893
  0C:02F4    A$main$894
  0C:02F5    A$main$895
  0C:02F8    A$main$896
  0C:02FA    A$main$897
  0C:02FB    A$main$898
  0C:02FE    A$main$899
  0C:0300    A$main$900
  0C:0301    A$main$901
  0C:0304    A$main$902
  0C:0306    A$main$903
  0C:0307    A$main$904
  0C:030A    A$main$905
  0C:030C    A$main$906
  0C:030D    A$main$907
  0C:0310    A$main$908
  0C:0312    A$main$909
  0C:0313    A$main$910
  0C:0316    A$main$911
  0C:0318    A$main$912
  0C:0319    A$main$913
  0C:031C    A$main$914
  0C:031E    A$main$915
  0C:031F    A$main$916
  0C:0322    A$main$917
  0C:0324    A$main$918
  0C:0325    A$main$919
  0C:0328    A$main$920
  0C:032A    A$main$921
  0C:032B    A$main$922
  0C:032E    A$main$923
  0C:0330    A$main$924
  0C:0331    A$main$925
  0C:0334    A$main$926
  0C:0336    A$main$927
  0C:0337    A$main$928
  0C:033A    A$main$929
  0C:033C    A$main$930
  0C:033D    A$main$931
  0C:0340    A$main$932
  0C:0342    A$main$933
  0C:0343    A$main$934
  0C:0346    A$main$935
  0C:0348    A$main$936
  0C:0349    A$main$937
  0C:034C    A$main$938
  0C:034E    A$main$939
  0C:034F    A$main$940
  0C:0352    A$main$941
  0C:0354    A$main$942
  0C:0355    A$main$943
  0C:0358    A$main$944
  0C:035A    A$main$945
  0C:035B    A$main$946
  0C:035E    A$main$947
  0C:0360    A$main$948
  0C:0361    A$main$952
  0C:0361    C$main.c$25$1$1
  0C:0364    A$main$953
  0C:0366    A$main$954
  0C:0367    A$main$955
  0C:036A    A$main$956
  0C:036C    A$main$957
  0C:036D    A$main$958
  0C:0370    A$main$959
  0C:0372    A$main$960
  0C:0373    A$main$961
  0C:0376    A$main$962
  0C:0378    A$main$963
  0C:0379    A$main$964
  0C:037C    A$main$965
  0C:037E    A$main$966
  0C:037F    A$main$967
  0C:0382    A$main$968
  0C:0384    A$main$969
  0C:0385    A$main$970
  0C:0388    A$main$971
  0C:038A    A$main$972
  0C:038B    A$main$973
  0C:038E    A$main$974
  0C:0390    A$main$975
  0C:0391    A$main$976
  0C:0394    A$main$977
  0C:0396    A$main$978
  0C:0397    A$main$979
  0C:039A    A$main$980
  0C:039C    A$main$981
  0C:039D    A$main$982
  0C:03A0    A$main$983
  0C:03A2    A$main$984
  0C:03A3    A$main$985
  0C:03A6    A$main$986
  0C:03A8    A$main$987
  0C:03A9    A$main$988
  0C:03AC    A$main$989
  0C:03AE    A$main$990
  0C:03AF    A$main$991
  0C:03B2    A$main$992
  0C:03B4    A$main$993
  0C:03B5    A$main$994
  0C:03B8    A$main$995
  0C:03BA    A$main$996
  0C:03BB    A$main$997
  0C:03BE    A$main$998
  0C:03C0    A$main$999
  0C:03C1    A$main$1000
  0C:03C4    A$main$1001
  0C:03C6    A$main$1002
  0C:03C7    A$main$1003
  0C:03CA    A$main$1004
  0C:03CC    A$main$1005
  0C:03CD    A$main$1006
  0C:03D0    A$main$1007
  0C:03D2    A$main$1008
  0C:03D3    A$main$1009
  0C:03D6    A$main$1010
  0C:03D8    A$main$1011
  0C:03D9    A$main$1012
  0C:03DC    A$main$1013
  0C:03DE    A$main$1014
  0C:03DF    A$main$1015
  0C:03E2    A$main$1016
  0C:03E4    A$main$1017
  0C:03E5    A$main$1018
  0C:03E8    A$main$1019
  0C:03EA    A$main$1020
  0C:03EB    A$main$1021
  0C:03EE    A$main$1022
  0C:03F0    A$main$1023
  0C:03F1    A$main$1024
  0C:03F4    A$main$1025
  0C:03F6    A$main$1026
  0C:03F7    A$main$1027
  0C:03FA    A$main$1028
  0C:03FC    A$main$1029
  0C:03FD    A$main$1030
  0C:0400    A$main$1031
  0C:0402    A$main$1032
  0C:0403    A$main$1033
  0C:0406    A$main$1034
  0C:0408    A$main$1035
  0C:0409    A$main$1036
  0C:040C    A$main$1037
  0C:040E    A$main$1038
  0C:040F    A$main$1039
  0C:0412    A$main$1040
  0C:0414    A$main$1041
  0C:0415    A$main$1042
  0C:0418    A$main$1043
  0C:041A    A$main$1044
  0C:041B    A$main$1045
  0C:041E    A$main$1046
  0C:0420    A$main$1047
  0C:0421    A$main$1048
  0C:0424    A$main$1049
  0C:0426    A$main$1050
  0C:0427    A$main$1051
  0C:042A    A$main$1052
  0C:042C    A$main$1053
  0C:042D    A$main$1054
  0C:0430    A$main$1055
  0C:0432    A$main$1056
  0C:0433    A$main$1057
  0C:0436    A$main$1058
  0C:0438    A$main$1059
  0C:0439    A$main$1060
  0C:043C    A$main$1061
  0C:043E    A$main$1062
  0C:043F    A$main$1063
  0C:0442    A$main$1064
  0C:0444    A$main$1065
  0C:0445    A$main$1066
  0C:0448    A$main$1067
  0C:044A    A$main$1068
  0C:044B    A$main$1069
  0C:044E    A$main$1070
  0C:0450    A$main$1071
  0C:0451    A$main$1072
  0C:0454    A$main$1073
  0C:0456    A$main$1074
  0C:0457    A$main$1075
  0C:045A    A$main$1076
  0C:045C    A$main$1077
  0C:045D    A$main$1078
  0C:0460    A$main$1079
  0C:0462    A$main$1080
  0C:0463    A$main$1081
  0C:0466    A$main$1082
  0C:0468    A$main$1083
  0C:0469    A$main$1084
  0C:046C    A$main$1085
  0C:046E    A$main$1086
  0C:046F    A$main$1087
  0C:0472    A$main$1088
  0C:0474    A$main$1089
  0C:0475    A$main$1090
  0C:0478    A$main$1091
  0C:047A    A$main$1092
  0C:047B    A$main$1093
  0C:047E    A$main$1094
  0C:0480    A$main$1095
  0C:0481    A$main$1096
  0C:0484    A$main$1097
  0C:0486    A$main$1098
  0C:0487    A$main$1099
  0C:048A    A$main$1100
  0C:048C    A$main$1101
  0C:048D    A$main$1102
  0C:0490    A$main$1103
  0C:0492    A$main$1104
  0C:0493    A$main$1105
  0C:0496    A$main$1106
  0C:0498    A$main$1107
  0C:0499    A$main$1108
  0C:049C    A$main$1109
  0C:049E    A$main$1110
  0C:049F    A$main$1111
  0C:04A2    A$main$1112
  0C:04A4    A$main$1113
  0C:04A5    A$main$1114
  0C:04A8    A$main$1115
  0C:04AA    A$main$1116
  0C:04AB    A$main$1117
  0C:04AE    A$main$1118
  0C:04B0    A$main$1119
  0C:04B1    A$main$1120
  0C:04B4    A$main$1121
  0C:04B6    A$main$1122
  0C:04B7    A$main$1123
  0C:04BA    A$main$1124
  0C:04BC    A$main$1125
  0C:04BD    A$main$1126
  0C:04C0    A$main$1127
  0C:04C2    A$main$1128
  0C:04C3    A$main$1129
  0C:04C6    A$main$1130
  0C:04C8    A$main$1131
  0C:04C9    A$main$1132
  0C:04CC    A$main$1133
  0C:04CE    A$main$1134
  0C:04CF    A$main$1135
  0C:04D2    A$main$1136
  0C:04D4    A$main$1137
  0C:04D5    A$main$1138
  0C:04D8    A$main$1139
  0C:04DA    A$main$1140
  0C:04DB    A$main$1141
  0C:04DE    A$main$1142
  0C:04E0    A$main$1143
  0C:04E1    A$main$1144
  0C:04E4    A$main$1145
  0C:04E6    A$main$1146
  0C:04E7    A$main$1147
  0C:04EA    A$main$1148
  0C:04EC    A$main$1149
  0C:04ED    A$main$1150
  0C:04F0    A$main$1151
  0C:04F2    A$main$1152
  0C:04F3    A$main$1153
  0C:04F6    A$main$1154
  0C:04F8    A$main$1155
  0C:04F9    A$main$1156
  0C:04FC    A$main$1157
  0C:04FE    A$main$1158
  0C:04FF    A$main$1159
  0C:0502    A$main$1160
  0C:0504    A$main$1161
  0C:0505    A$main$1162
  0C:0508    A$main$1163
  0C:050A    A$main$1164
  0C:050B    A$main$1165
  0C:050E    A$main$1166
  0C:0510    A$main$1167
  0C:0511    A$main$1168
  0C:0514    A$main$1169
  0C:0516    A$main$1170
  0C:0517    A$main$1171
  0C:051A    A$main$1172
  0C:051C    A$main$1173
  0C:051D    A$main$1174
  0C:0520    A$main$1175
  0C:0522    A$main$1176
  0C:0523    A$main$1177
  0C:0526    A$main$1178
  0C:0528    A$main$1179
  0C:0529    A$main$1180
  0C:052C    A$main$1181
  0C:052E    A$main$1182
  0C:052F    A$main$1183
  0C:0532    A$main$1184
  0C:0534    A$main$1185
  0C:0535    A$main$1186
  0C:0538    A$main$1187
  0C:053A    A$main$1188
  0C:053B    A$main$1189
  0C:053E    A$main$1190
  0C:0540    A$main$1191
  0C:0541    A$main$1192
  0C:0544    A$main$1193
  0C:0546    A$main$1194
  0C:0547    A$main$1195
  0C:054A    A$main$1196
  0C:054C    A$main$1197
  0C:054D    A$main$1198
  0C:0550    A$main$1199
  0C:0552    A$main$1200
  0C:0553    A$main$1201
  0C:0556    A$main$1202
  0C:0558    A$main$1203
  0C:0559    A$main$1204
  0C:055C    A$main$1205
  0C:055E    A$main$1206
  0C:055F    A$main$1207
  0C:0562    A$main$1208
  0C:0564    A$main$1209
  0C:0565    A$main$1210
  0C:0568    A$main$1211
  0C:056A    A$main$1212
  0C:056B    A$main$1213
  0C:056E    A$main$1214
  0C:0570    A$main$1215
  0C:0571    A$main$1216
  0C:0574    A$main$1217
  0C:0576    A$main$1218
  0C:0577    A$main$1219
  0C:057A    A$main$1220
  0C:057C    A$main$1221
  0C:057D    A$main$1222
  0C:0580    A$main$1223
  0C:0582    A$main$1224
  0C:0583    A$main$1225
  0C:0586    A$main$1226
  0C:0588    A$main$1227
  0C:0589    A$main$1228
  0C:058C    A$main$1229
  0C:058E    A$main$1230
  0C:058F    A$main$1231
  0C:0592    A$main$1232
  0C:0594    A$main$1233
  0C:0595    A$main$1234
  0C:0598    A$main$1235
  0C:059A    A$main$1236
  0C:059B    A$main$1237
  0C:059E    A$main$1238
  0C:05A0    A$main$1239
  0C:05A1    A$main$1240
  0C:05A4    A$main$1241
  0C:05A6    A$main$1242
  0C:05A7    A$main$1243
  0C:05AA    A$main$1244
  0C:05AC    A$main$1245
  0C:05AD    A$main$1246
  0C:05B0    A$main$1247
  0C:05B2    A$main$1248
  0C:05B3    A$main$1249
  0C:05B6    A$main$1250
  0C:05B8    A$main$1251
  0C:05B9    A$main$1252
  0C:05BC    A$main$1253
  0C:05BE    A$main$1254
  0C:05BF    A$main$1255
  0C:05C2    A$main$1256
  0C:05C4    A$main$1257
  0C:05C5    A$main$1258
  0C:05C8    A$main$1259
  0C:05CA    A$main$1260
  0C:05CB    A$main$1261
  0C:05CE    A$main$1262
  0C:05D0    A$main$1263
  0C:05D1    A$main$1264
  0C:05D4    A$main$1265
  0C:05D6    A$main$1266
  0C:05D7    A$main$1267
  0C:05DA    A$main$1268
  0C:05DC    A$main$1269
  0C:05DD    A$main$1270
  0C:05E0    A$main$1271
  0C:05E2    A$main$1272
  0C:05E3    A$main$1273
  0C:05E6    A$main$1274
  0C:05E8    A$main$1275
  0C:05E9    A$main$1276
  0C:05EC    A$main$1277
  0C:05EE    A$main$1278
  0C:05EF    A$main$1279
  0C:05F2    A$main$1280
  0C:05F4    A$main$1281
  0C:05F5    A$main$1282
  0C:05F8    A$main$1283
  0C:05FA    A$main$1284
  0C:05FB    A$main$1285
  0C:05FE    A$main$1286
  0C:0600    A$main$1287
  0C:0601    A$main$1288
  0C:0604    A$main$1289
  0C:0606    A$main$1290
  0C:0607    A$main$1291
  0C:060A    A$main$1292
  0C:060C    A$main$1293
  0C:060D    A$main$1294
  0C:0610    A$main$1295
  0C:0612    A$main$1296
  0C:0613    A$main$1297
  0C:0616    A$main$1298
  0C:0618    A$main$1299
  0C:0619    A$main$1300
  0C:061C    A$main$1301
  0C:061E    A$main$1302
  0C:061F    A$main$1303
  0C:0622    A$main$1304
  0C:0624    A$main$1305
  0C:0625    A$main$1306
  0C:0628    A$main$1307
  0C:062A    A$main$1308
  0C:062B    A$main$1309
  0C:062E    A$main$1310
  0C:0630    A$main$1311
  0C:0631    A$main$1312
  0C:0634    A$main$1313
  0C:0636    A$main$1314
  0C:0637    A$main$1315
  0C:063A    A$main$1316
  0C:063C    A$main$1317
  0C:063D    A$main$1318
  0C:0640    A$main$1319
  0C:0642    A$main$1320
  0C:0643    A$main$1321
  0C:0646    A$main$1322
  0C:0648    A$main$1323
  0C:0649    A$main$1324
  0C:064C    A$main$1325
  0C:064E    A$main$1326
  0C:064F    A$main$1327
  0C:0652    A$main$1328
  0C:0654    A$main$1329
  0C:0655    A$main$1330
  0C:0658    A$main$1331
  0C:065A    A$main$1332
  0C:065B    A$main$1333
  0C:065E    A$main$1334
  0C:0660    A$main$1335
  0C:0661    A$main$1339
  0C:0661    C$main.c$27$1$1
  0C:0664    A$main$1340
  0C:0666    A$main$1341
  0C:0667    A$main$1342
  0C:066A    A$main$1343
  0C:066C    A$main$1344
  0C:066D    A$main$1345
  0C:0670    A$main$1346
  0C:0672    A$main$1347
  0C:0673    A$main$1348
  0C:0676    A$main$1349
  0C:0678    A$main$1350
  0C:0679    A$main$1351
  0C:067C    A$main$1352
  0C:067E    A$main$1353
  0C:067F    A$main$1354
  0C:0682    A$main$1355
  0C:0684    A$main$1356
  0C:0685    A$main$1357
  0C:0688    A$main$1358
  0C:068A    A$main$1359
  0C:068B    A$main$1360
  0C:068E    A$main$1361
  0C:0690    A$main$1362
  0C:0691    A$main$1363
  0C:0694    A$main$1364
  0C:0696    A$main$1365
  0C:0697    A$main$1366
  0C:069A    A$main$1367
  0C:069C    A$main$1368
  0C:069D    A$main$1369
  0C:06A0    A$main$1370
  0C:06A2    A$main$1371
  0C:06A3    A$main$1372
  0C:06A6    A$main$1373
  0C:06A8    A$main$1374
  0C:06A9    A$main$1375
  0C:06AC    A$main$1376
  0C:06AE    A$main$1377
  0C:06AF    A$main$1378
  0C:06B2    A$main$1379
  0C:06B4    A$main$1380
  0C:06B5    A$main$1381
  0C:06B8    A$main$1382
  0C:06BA    A$main$1383
  0C:06BB    A$main$1384
  0C:06BE    A$main$1385
  0C:06C0    A$main$1386
  0C:06C1    A$main$1387
  0C:06C4    A$main$1388
  0C:06C6    A$main$1389
  0C:06C7    A$main$1390
  0C:06CA    A$main$1391
  0C:06CC    A$main$1392
  0C:06CD    A$main$1393
  0C:06D0    A$main$1394
  0C:06D2    A$main$1395
  0C:06D3    A$main$1396
  0C:06D6    A$main$1397
  0C:06D8    A$main$1398
  0C:06D9    A$main$1399
  0C:06DC    A$main$1400
  0C:06DE    A$main$1401
  0C:06DF    A$main$1402
  0C:06E2    A$main$1403
  0C:06E4    A$main$1404
  0C:06E5    A$main$1405
  0C:06E8    A$main$1406
  0C:06EA    A$main$1407
  0C:06EB    A$main$1408
  0C:06EE    A$main$1409
  0C:06F0    A$main$1410
  0C:06F1    A$main$1411
  0C:06F4    A$main$1412
  0C:06F6    A$main$1413
  0C:06F7    A$main$1414
  0C:06FA    A$main$1415
  0C:06FC    A$main$1416
  0C:06FD    A$main$1417
  0C:0700    A$main$1418
  0C:0702    A$main$1419
  0C:0703    A$main$1420
  0C:0706    A$main$1421
  0C:0708    A$main$1422
  0C:0709    A$main$1423
  0C:070C    A$main$1424
  0C:070E    A$main$1425
  0C:070F    A$main$1426
  0C:0712    A$main$1427
  0C:0714    A$main$1428
  0C:0715    A$main$1429
  0C:0718    A$main$1430
  0C:071A    A$main$1431
  0C:071B    A$main$1432
  0C:071E    A$main$1433
  0C:0720    A$main$1434
  0C:0721    A$main$1435
  0C:0724    A$main$1436
  0C:0726    A$main$1437
  0C:0727    A$main$1438
  0C:072A    A$main$1439
  0C:072C    A$main$1440
  0C:072D    A$main$1441
  0C:0730    A$main$1442
  0C:0732    A$main$1443
  0C:0733    A$main$1444
  0C:0736    A$main$1445
  0C:0738    A$main$1446
  0C:0739    A$main$1447
  0C:073C    A$main$1448
  0C:073E    A$main$1449
  0C:073F    A$main$1450
  0C:0742    A$main$1451
  0C:0744    A$main$1452
  0C:0745    A$main$1453
  0C:0748    A$main$1454
  0C:074A    A$main$1455
  0C:074B    A$main$1456
  0C:074E    A$main$1457
  0C:0750    A$main$1458
  0C:0751    A$main$1459
  0C:0754    A$main$1460
  0C:0756    A$main$1461
  0C:0757    A$main$1462
  0C:075A    A$main$1463
  0C:075C    A$main$1464
  0C:075D    A$main$1465
  0C:0760    A$main$1466
  0C:0762    A$main$1467
  0C:0763    A$main$1468
  0C:0766    A$main$1469
  0C:0768    A$main$1470
  0C:0769    A$main$1471
  0C:076C    A$main$1472
  0C:076E    A$main$1473
  0C:076F    A$main$1474
  0C:0772    A$main$1475
  0C:0774    A$main$1476
  0C:0775    A$main$1477
  0C:0778    A$main$1478
  0C:077A    A$main$1479
  0C:077B    A$main$1480
  0C:077E    A$main$1481
  0C:0780    A$main$1482
  0C:0781    A$main$1483
  0C:0784    A$main$1484
  0C:0786    A$main$1485
  0C:0787    A$main$1486
  0C:078A    A$main$1487
  0C:078C    A$main$1488
  0C:078D    A$main$1489
  0C:0790    A$main$1490
  0C:0792    A$main$1491
  0C:0793    A$main$1492
  0C:0796    A$main$1493
  0C:0798    A$main$1494
  0C:0799    A$main$1495
  0C:079C    A$main$1496
  0C:079D    A$main$1497
  0C:079E    A$main$1498
  0C:07A1    A$main$1499
  0C:07A3    A$main$1500
  0C:07A4    A$main$1501
  0C:07A7    A$main$1502
  0C:07A9    A$main$1503
  0C:07AA    A$main$1504
  0C:07AD    A$main$1505
  0C:07AF    A$main$1506
  0C:07B0    A$main$1507
  0C:07B3    A$main$1508
  0C:07B5    A$main$1509
  0C:07B6    A$main$1510
  0C:07B9    A$main$1511
  0C:07BB    A$main$1512
  0C:07BC    A$main$1513
  0C:07BF    A$main$1514
  0C:07C1    A$main$1515
  0C:07C2    A$main$1516
  0C:07C5    A$main$1517
  0C:07C7    A$main$1518
  0C:07C8    A$main$1519
  0C:07CB    A$main$1520
  0C:07CD    A$main$1521
  0C:07CE    A$main$1522
  0C:07D1    A$main$1523
  0C:07D3    A$main$1524
  0C:07D4    A$main$1525
  0C:07D7    A$main$1526
  0C:07D9    A$main$1527
  0C:07DA    A$main$1528
  0C:07DD    A$main$1529
  0C:07DF    A$main$1530
  0C:07E0    A$main$1531
  0C:07E3    A$main$1532
  0C:07E5    A$main$1533
  0C:07E6    A$main$1534
  0C:07E9    A$main$1535
  0C:07EB    A$main$1536
  0C:07EC    A$main$1537
  0C:07EF    A$main$1538
  0C:07F1    A$main$1539
  0C:07F2    A$main$1540
  0C:07F5    A$main$1541
  0C:07F7    A$main$1542
  0C:07F8    A$main$1543
  0C:07FB    A$main$1544
  0C:07FD    A$main$1545
  0C:07FE    A$main$1546
  0C:0801    A$main$1547
  0C:0803    A$main$1548
  0C:0804    A$main$1549
  0C:0807    A$main$1550
  0C:0809    A$main$1551
  0C:080A    A$main$1552
  0C:080D    A$main$1553
  0C:080F    A$main$1554
  0C:0810    A$main$1555
  0C:0813    A$main$1556
  0C:0815    A$main$1557
  0C:0816    A$main$1558
  0C:0819    A$main$1559
  0C:081B    A$main$1560
  0C:081C    A$main$1561
  0C:081F    A$main$1562
  0C:0821    A$main$1563
  0C:0822    A$main$1564
  0C:0825    A$main$1565
  0C:0827    A$main$1566
  0C:0828    A$main$1567
  0C:082B    A$main$1568
  0C:082D    A$main$1569
  0C:082E    A$main$1570
  0C:0831    A$main$1571
  0C:0833    A$main$1572
  0C:0834    A$main$1573
  0C:0837    A$main$1574
  0C:0839    A$main$1575
  0C:083A    A$main$1576
  0C:083D    A$main$1577
  0C:083F    A$main$1578
  0C:0840    A$main$1579
  0C:0843    A$main$1580
  0C:0845    A$main$1581
  0C:0846    A$main$1582
  0C:0849    A$main$1583
  0C:084B    A$main$1584
  0C:084C    A$main$1585
  0C:084F    A$main$1586
  0C:0851    A$main$1587
  0C:0852    A$main$1588
  0C:0855    A$main$1589
  0C:0857    A$main$1590
  0C:0858    A$main$1591
  0C:085B    A$main$1592
  0C:085D    A$main$1593
  0C:085E    A$main$1594
  0C:0861    A$main$1595
  0C:0863    A$main$1596
  0C:0864    A$main$1597
  0C:0867    A$main$1598
  0C:0869    A$main$1599
  0C:086A    A$main$1600
  0C:086D    A$main$1601
  0C:086F    A$main$1602
  0C:0870    A$main$1603
  0C:0873    A$main$1604
  0C:0875    A$main$1605
  0C:0876    A$main$1606
  0C:0879    A$main$1607
  0C:087B    A$main$1608
  0C:087C    A$main$1609
  0C:087F    A$main$1610
  0C:0881    A$main$1611
  0C:0882    A$main$1612
  0C:0885    A$main$1613
  0C:0887    A$main$1614
  0C:0888    A$main$1615
  0C:088B    A$main$1616
  0C:088D    A$main$1617
  0C:088E    A$main$1618
  0C:0891    A$main$1619
  0C:0893    A$main$1620
  0C:0894    A$main$1621
  0C:0897    A$main$1622
  0C:0899    A$main$1623
  0C:089A    A$main$1624
  0C:089D    A$main$1625
  0C:089F    A$main$1626
  0C:08A0    A$main$1627
  0C:08A3    A$main$1628
  0C:08A5    A$main$1629
  0C:08A6    A$main$1630
  0C:08A9    A$main$1631
  0C:08AB    A$main$1632
  0C:08AC    A$main$1633
  0C:08AF    A$main$1634
  0C:08B1    A$main$1635
  0C:08B2    A$main$1636
  0C:08B5    A$main$1637
  0C:08B7    A$main$1638
  0C:08B8    A$main$1639
  0C:08BB    A$main$1640
  0C:08BD    A$main$1641
  0C:08BE    A$main$1642
  0C:08C1    A$main$1643
  0C:08C3    A$main$1644
  0C:08C4    A$main$1645
  0C:08C7    A$main$1646
  0C:08C9    A$main$1647
  0C:08CA    A$main$1648
  0C:08CD    A$main$1649
  0C:08CF    A$main$1650
  0C:08D0    A$main$1651
  0C:08D3    A$main$1652
  0C:08D5    A$main$1653
  0C:08D6    A$main$1654
  0C:08D9    A$main$1655
  0C:08DB    A$main$1656
  0C:08DC    A$main$1657
  0C:08DF    A$main$1658
  0C:08E1    A$main$1659
  0C:08E2    A$main$1660
  0C:08E5    A$main$1661
  0C:08E7    A$main$1662
  0C:08E8    A$main$1663
  0C:08EB    A$main$1664
  0C:08ED    A$main$1665
  0C:08EE    A$main$1666
  0C:08F1    A$main$1667
  0C:08F3    A$main$1668
  0C:08F4    A$main$1669
  0C:08F7    A$main$1670
  0C:08F9    A$main$1671
  0C:08FA    A$main$1672
  0C:08FD    A$main$1673
  0C:08FF    A$main$1674
  0C:0900    A$main$1675
  0C:0903    A$main$1676
  0C:0905    A$main$1677
  0C:0906    A$main$1678
  0C:0909    A$main$1679
  0C:090B    A$main$1680
  0C:090C    A$main$1681
  0C:090F    A$main$1682
  0C:0911    A$main$1683
  0C:0912    A$main$1684
  0C:0915    A$main$1685
  0C:0917    A$main$1686
  0C:0918    A$main$1687
  0C:091B    A$main$1688
  0C:091D    A$main$1689
  0C:091E    A$main$1690
  0C:0921    A$main$1691
  0C:0923    A$main$1692
  0C:0924    A$main$1693
  0C:0927    A$main$1694
  0C:0929    A$main$1695
  0C:092A    A$main$1696
  0C:092D    A$main$1697
  0C:092F    A$main$1698
  0C:0930    A$main$1699
  0C:0933    A$main$1700
  0C:0935    A$main$1701
  0C:0936    A$main$1702
  0C:0939    A$main$1703
  0C:093B    A$main$1704
  0C:093C    A$main$1705
  0C:093F    A$main$1706
  0C:0941    A$main$1707
  0C:0942    A$main$1708
  0C:0945    A$main$1709
  0C:0947    A$main$1710
  0C:0948    A$main$1711
  0C:094B    A$main$1712
  0C:094D    A$main$1713
  0C:094E    A$main$1714
  0C:0951    A$main$1715
  0C:0953    A$main$1716
  0C:0954    A$main$1717
  0C:0957    A$main$1718
  0C:0959    A$main$1719
  0C:095A    A$main$1720
  0C:095D    A$main$1721
  0C:095F    A$main$1722
  0C:0960    A$main$1726
  0C:0960    C$main.c$29$1$1
  0C:0963    A$main$1727
  0C:0965    A$main$1728
  0C:0966    A$main$1729
  0C:0969    A$main$1730
  0C:096B    A$main$1731
  0C:096C    A$main$1732
  0C:096F    A$main$1733
  0C:0971    A$main$1734
  0C:0972    A$main$1735
  0C:0975    A$main$1736
  0C:0977    A$main$1737
  0C:0978    A$main$1738
  0C:097B    A$main$1739
  0C:097D    A$main$1740
  0C:097E    A$main$1741
  0C:0981    A$main$1742
  0C:0983    A$main$1743
  0C:0984    A$main$1744
  0C:0987    A$main$1745
  0C:0989    A$main$1746
  0C:098A    A$main$1747
  0C:098D    A$main$1748
  0C:098F    A$main$1749
  0C:0990    A$main$1750
  0C:0993    A$main$1751
  0C:0995    A$main$1752
  0C:0996    A$main$1753
  0C:0999    A$main$1754
  0C:099B    A$main$1755
  0C:099C    A$main$1756
  0C:099F    A$main$1757
  0C:09A1    A$main$1758
  0C:09A2    A$main$1759
  0C:09A5    A$main$1760
  0C:09A7    A$main$1761
  0C:09A8    A$main$1762
  0C:09AB    A$main$1763
  0C:09AD    A$main$1764
  0C:09AE    A$main$1765
  0C:09B1    A$main$1766
  0C:09B3    A$main$1767
  0C:09B4    A$main$1768
  0C:09B7    A$main$1769
  0C:09B9    A$main$1770
  0C:09BA    A$main$1771
  0C:09BD    A$main$1772
  0C:09BF    A$main$1773
  0C:09C0    A$main$1774
  0C:09C3    A$main$1775
  0C:09C5    A$main$1776
  0C:09C6    A$main$1777
  0C:09C9    A$main$1778
  0C:09CB    A$main$1779
  0C:09CC    A$main$1780
  0C:09CF    A$main$1781
  0C:09D1    A$main$1782
  0C:09D2    A$main$1783
  0C:09D5    A$main$1784
  0C:09D7    A$main$1785
  0C:09D8    A$main$1786
  0C:09DB    A$main$1787
  0C:09DD    A$main$1788
  0C:09DE    A$main$1789
  0C:09E1    A$main$1790
  0C:09E3    A$main$1791
  0C:09E4    A$main$1792
  0C:09E7    A$main$1793
  0C:09E9    A$main$1794
  0C:09EA    A$main$1795
  0C:09ED    A$main$1796
  0C:09EF    A$main$1797
  0C:09F0    A$main$1798
  0C:09F3    A$main$1799
  0C:09F5    A$main$1800
  0C:09F6    A$main$1801
  0C:09F9    A$main$1802
  0C:09FB    A$main$1803
  0C:09FC    A$main$1804
  0C:09FF    A$main$1805
  0C:0A01    A$main$1806
  0C:0A02    A$main$1807
  0C:0A05    A$main$1808
  0C:0A07    A$main$1809
  0C:0A08    A$main$1810
  0C:0A0B    A$main$1811
  0C:0A0D    A$main$1812
  0C:0A0E    A$main$1813
  0C:0A11    A$main$1814
  0C:0A13    A$main$1815
  0C:0A14    A$main$1816
  0C:0A17    A$main$1817
  0C:0A19    A$main$1818
  0C:0A1A    A$main$1819
  0C:0A1D    A$main$1820
  0C:0A1F    A$main$1821
  0C:0A20    A$main$1822
  0C:0A23    A$main$1823
  0C:0A25    A$main$1824
  0C:0A26    A$main$1825
  0C:0A29    A$main$1826
  0C:0A2B    A$main$1827
  0C:0A2C    A$main$1828
  0C:0A2F    A$main$1829
  0C:0A31    A$main$1830
  0C:0A32    A$main$1831
  0C:0A35    A$main$1832
  0C:0A37    A$main$1833
  0C:0A38    A$main$1834
  0C:0A3B    A$main$1835
  0C:0A3D    A$main$1836
  0C:0A3E    A$main$1837
  0C:0A41    A$main$1838
  0C:0A43    A$main$1839
  0C:0A44    A$main$1840
  0C:0A47    A$main$1841
  0C:0A49    A$main$1842
  0C:0A4A    A$main$1843
  0C:0A4D    A$main$1844
  0C:0A4F    A$main$1845
  0C:0A50    A$main$1846
  0C:0A53    A$main$1847
  0C:0A55    A$main$1848
  0C:0A56    A$main$1849
  0C:0A59    A$main$1850
  0C:0A5B    A$main$1851
  0C:0A5C    A$main$1852
  0C:0A5F    A$main$1853
  0C:0A61    A$main$1854
  0C:0A62    A$main$1855
  0C:0A65    A$main$1856
  0C:0A67    A$main$1857
  0C:0A68    A$main$1858
  0C:0A6B    A$main$1859
  0C:0A6D    A$main$1860
  0C:0A6E    A$main$1861
  0C:0A71    A$main$1862
  0C:0A73    A$main$1863
  0C:0A74    A$main$1864
  0C:0A77    A$main$1865
  0C:0A79    A$main$1866
  0C:0A7A    A$main$1867
  0C:0A7D    A$main$1868
  0C:0A7F    A$main$1869
  0C:0A80    A$main$1870
  0C:0A83    A$main$1871
  0C:0A85    A$main$1872
  0C:0A86    A$main$1873
  0C:0A89    A$main$1874
  0C:0A8B    A$main$1875
  0C:0A8C    A$main$1876
  0C:0A8F    A$main$1877
  0C:0A91    A$main$1878
  0C:0A92    A$main$1879
  0C:0A95    A$main$1880
  0C:0A97    A$main$1881
  0C:0A98    A$main$1882
  0C:0A9B    A$main$1883
  0C:0A9D    A$main$1884
  0C:0A9E    A$main$1885
  0C:0AA1    A$main$1886
  0C:0AA3    A$main$1887
  0C:0AA4    A$main$1888
  0C:0AA7    A$main$1889
  0C:0AA9    A$main$1890
  0C:0AAA    A$main$1891
  0C:0AAD    A$main$1892
  0C:0AAF    A$main$1893
  0C:0AB0    A$main$1894
  0C:0AB3    A$main$1895
  0C:0AB5    A$main$1896
  0C:0AB6    A$main$1897
  0C:0AB9    A$main$1898
  0C:0ABB    A$main$1899
  0C:0ABC    A$main$1900
  0C:0ABF    A$main$1901
  0C:0AC1    A$main$1902
  0C:0AC2    A$main$1903
  0C:0AC5    A$main$1904
  0C:0AC7    A$main$1905
  0C:0AC8    A$main$1906
  0C:0ACB    A$main$1907
  0C:0ACD    A$main$1908
  0C:0ACE    A$main$1909
  0C:0AD1    A$main$1910
  0C:0AD3    A$main$1911
  0C:0AD4    A$main$1912
  0C:0AD7    A$main$1913
  0C:0AD9    A$main$1914
  0C:0ADA    A$main$1915
  0C:0ADD    A$main$1916
  0C:0ADF    A$main$1917
  0C:0AE0    A$main$1918
  0C:0AE3    A$main$1919
  0C:0AE5    A$main$1920
  0C:0AE6    A$main$1921
  0C:0AE9    A$main$1922
  0C:0AEB    A$main$1923
  0C:0AEC    A$main$1924
  0C:0AEF    A$main$1925
  0C:0AF1    A$main$1926
  0C:0AF2    A$main$1927
  0C:0AF5    A$main$1928
  0C:0AF7    A$main$1929
  0C:0AF8    A$main$1930
  0C:0AFB    A$main$1931
  0C:0AFD    A$main$1932
  0C:0AFE    A$main$1933
  0C:0B01    A$main$1934
  0C:0B03    A$main$1935
  0C:0B04    A$main$1936
  0C:0B07    A$main$1937
  0C:0B09    A$main$1938
  0C:0B0A    A$main$1939
  0C:0B0D    A$main$1940
  0C:0B0F    A$main$1941
  0C:0B10    A$main$1942
  0C:0B13    A$main$1943
  0C:0B15    A$main$1944
  0C:0B16    A$main$1945
  0C:0B19    A$main$1946
  0C:0B1B    A$main$1947
  0C:0B1C    A$main$1948
  0C:0B1F    A$main$1949
  0C:0B21    A$main$1950
  0C:0B22    A$main$1951
  0C:0B25    A$main$1952
  0C:0B27    A$main$1953
  0C:0B28    A$main$1954
  0C:0B2B    A$main$1955
  0C:0B2D    A$main$1956
  0C:0B2E    A$main$1957
  0C:0B31    A$main$1958
  0C:0B33    A$main$1959
  0C:0B34    A$main$1960
  0C:0B37    A$main$1961
  0C:0B39    A$main$1962
  0C:0B3A    A$main$1963
  0C:0B3D    A$main$1964
  0C:0B3F    A$main$1965
  0C:0B40    A$main$1966
  0C:0B43    A$main$1967
  0C:0B45    A$main$1968
  0C:0B46    A$main$1969
  0C:0B49    A$main$1970
  0C:0B4B    A$main$1971
  0C:0B4C    A$main$1972
  0C:0B4F    A$main$1973
  0C:0B51    A$main$1974
  0C:0B52    A$main$1975
  0C:0B55    A$main$1976
  0C:0B57    A$main$1977
  0C:0B58    A$main$1978
  0C:0B5B    A$main$1979
  0C:0B5D    A$main$1980
  0C:0B5E    A$main$1981
  0C:0B61    A$main$1982
  0C:0B63    A$main$1983
  0C:0B64    A$main$1984
  0C:0B67    A$main$1985
  0C:0B69    A$main$1986
  0C:0B6A    A$main$1987
  0C:0B6D    A$main$1988
  0C:0B6F    A$main$1989
  0C:0B70    A$main$1990
  0C:0B73    A$main$1991
  0C:0B75    A$main$1992
  0C:0B76    A$main$1993
  0C:0B79    A$main$1994
  0C:0B7B    A$main$1995
  0C:0B7C    A$main$1996
  0C:0B7F    A$main$1997
  0C:0B81    A$main$1998
  0C:0B82    A$main$1999
  0C:0B85    A$main$2000
  0C:0B87    A$main$2001
  0C:0B88    A$main$2002
  0C:0B8B    A$main$2003
  0C:0B8D    A$main$2004
  0C:0B8E    A$main$2005
  0C:0B91    A$main$2006
  0C:0B93    A$main$2007
  0C:0B94    A$main$2008
  0C:0B97    A$main$2009
  0C:0B99    A$main$2010
  0C:0B9A    A$main$2011
  0C:0B9D    A$main$2012
  0C:0B9F    A$main$2013
  0C:0BA0    A$main$2014
  0C:0BA3    A$main$2015
  0C:0BA5    A$main$2016
  0C:0BA6    A$main$2017
  0C:0BA9    A$main$2018
  0C:0BAB    A$main$2019
  0C:0BAC    A$main$2020
  0C:0BAF    A$main$2021
  0C:0BB1    A$main$2022
  0C:0BB2    A$main$2023
  0C:0BB5    A$main$2024
  0C:0BB7    A$main$2025
  0C:0BB8    A$main$2026
  0C:0BBB    A$main$2027
  0C:0BBD    A$main$2028
  0C:0BBE    A$main$2029
  0C:0BC1    A$main$2030
  0C:0BC3    A$main$2031
  0C:0BC4    A$main$2032
  0C:0BC7    A$main$2033
  0C:0BC9    A$main$2034
  0C:0BCA    A$main$2035
  0C:0BCD    A$main$2036
  0C:0BCF    A$main$2037
  0C:0BD0    A$main$2038
  0C:0BD3    A$main$2039
  0C:0BD5    A$main$2040
  0C:0BD6    A$main$2041
  0C:0BD9    A$main$2042
  0C:0BDB    A$main$2043
  0C:0BDC    A$main$2044
  0C:0BDF    A$main$2045
  0C:0BE1    A$main$2046
  0C:0BE2    A$main$2047
  0C:0BE5    A$main$2048
  0C:0BE7    A$main$2049
  0C:0BE8    A$main$2050
  0C:0BEB    A$main$2051
  0C:0BED    A$main$2052
  0C:0BEE    A$main$2053
  0C:0BF1    A$main$2054
  0C:0BF3    A$main$2055
  0C:0BF4    A$main$2056
  0C:0BF7    A$main$2057
  0C:0BF9    A$main$2058
  0C:0BFA    A$main$2059
  0C:0BFD    A$main$2060
  0C:0BFF    A$main$2061
  0C:0C00    A$main$2062
  0C:0C03    A$main$2063
  0C:0C05    A$main$2064
  0C:0C06    A$main$2065
  0C:0C09    A$main$2066
  0C:0C0B    A$main$2067
  0C:0C0C    A$main$2068
  0C:0C0F    A$main$2069
  0C:0C11    A$main$2070
  0C:0C12    A$main$2071
  0C:0C15    A$main$2072
  0C:0C17    A$main$2073
  0C:0C18    A$main$2074
  0C:0C1B    A$main$2075
  0C:0C1D    A$main$2076
  0C:0C1E    A$main$2077
  0C:0C21    A$main$2078
  0C:0C23    A$main$2079
  0C:0C24    A$main$2080
  0C:0C27    A$main$2081
  0C:0C29    A$main$2082
  0C:0C2A    A$main$2083
  0C:0C2D    A$main$2084
  0C:0C2F    A$main$2085
  0C:0C30    A$main$2086
  0C:0C33    A$main$2087
  0C:0C35    A$main$2088
  0C:0C36    A$main$2089
  0C:0C39    A$main$2090
  0C:0C3B    A$main$2091
  0C:0C3C    A$main$2092
  0C:0C3F    A$main$2093
  0C:0C41    A$main$2094
  0C:0C42    A$main$2095
  0C:0C45    A$main$2096
  0C:0C47    A$main$2097
  0C:0C48    A$main$2098
  0C:0C4B    A$main$2099
  0C:0C4D    A$main$2100
  0C:0C4E    A$main$2101
  0C:0C51    A$main$2102
  0C:0C53    A$main$2103
  0C:0C54    A$main$2104
  0C:0C57    A$main$2105
  0C:0C59    A$main$2106
  0C:0C5A    A$main$2107
  0C:0C5D    A$main$2108
  0C:0C5F    A$main$2109

Hexadecimal

Area                               Addr   Size   Decimal Bytes (Attributes)
--------------------------------   ----   ----   ------- ----- ------------
GSFINAL                            0C60   0003 =      3. bytes (REL,CON,CODE)

      Value  Global
   --------  --------------------------------
  0C:0C60    A$main$2111

Hexadecimal

Area                               Addr   Size   Decimal Bytes (Attributes)
--------------------------------   ----   ----   ------- ----- ------------
CSEG                               0C63   056B =   1387. bytes (REL,CON,CODE)

      Value  Global
   --------  --------------------------------
  0C:0C63    A$main$2149
  0C:0C63    C$main.c$45$0$0
  0C:0C63    G$mp_addition$0$0
  0C:0C63    _mp_addition
  0C:0C66    A$main$2150
  0C:0C69    A$main$2151
  0C:0C6C    A$main$2154
  0C:0C6C    C$main.c$51$1$1
  0C:0C6F    A$main$2157
  0C:0C71    A$main$2158
  0C:0C73    A$main$2160
  0C:0C74    A$main$2161
  0C:0C75    A$main$2162
  0C:0C77    A$main$2163
  0C:0C78    A$main$2164
  0C:0C7A    A$main$2165
  0C:0C7C    A$main$2166
  0C:0C7E    A$main$2169
  0C:0C7E    C$main.c$55$2$2
  0C:0C7F    A$main$2170
  0C:0C81    A$main$2171
  0C:0C82    A$main$2172
  0C:0C83    A$main$2173
  0C:0C85    A$main$2174
  0C:0C86    A$main$2175
  0C:0C88    A$main$2176
  0C:0C8A    A$main$2177
  0C:0C8C    A$main$2178
  0C:0C8E    A$main$2179
  0C:0C91    A$main$2180
  0C:0C92    A$main$2181
  0C:0C94    A$main$2182
  0C:0C95    A$main$2183
  0C:0C97    A$main$2184
  0C:0C98    A$main$2185
  0C:0C99    A$main$2186
  0C:0C9B    A$main$2187
  0C:0C9C    A$main$2188
  0C:0C9E    A$main$2189
  0C:0CA0    A$main$2190
  0C:0CA2    A$main$2191
  0C:0CA4    A$main$2192
  0C:0CA7    A$main$2193
  0C:0CA8    A$main$2194
  0C:0CAA    A$main$2195
  0C:0CAB    A$main$2196
  0C:0CAC    A$main$2197
  0C:0CAD    A$main$2198
  0C:0CAE    A$main$2199
  0C:0CAF    A$main$2200
  0C:0CB0    A$main$2201
  0C:0CB2    A$main$2202
  0C:0CB3    A$main$2203
  0C:0CB4    A$main$2204
  0C:0CB6    A$main$2205
  0C:0CB7    A$main$2206
  0C:0CB8    A$main$2207
  0C:0CB9    A$main$2208
  0C:0CBA    A$main$2209
  0C:0CBB    A$main$2210
  0C:0CBC    A$main$2211
  0C:0CBD    A$main$2214
  0C:0CBD    C$main.c$56$2$2
  0C:0CBF    A$main$2217
  0C:0CBF    C$main.c$60$2$2
  0C:0CC0    A$main$2218
  0C:0CC2    A$main$2219
  0C:0CC3    A$main$2220
  0C:0CC4    A$main$2221
  0C:0CC6    A$main$2222
  0C:0CC7    A$main$2223
  0C:0CC9    A$main$2224
  0C:0CCB    A$main$2225
  0C:0CCD    A$main$2226
  0C:0CCF    A$main$2227
  0C:0CD0    A$main$2228
  0C:0CD3    A$main$2231
  0C:0CD3    C$main.c$53$1$1
  0C:0CD4    A$main$2232
  0C:0CD7    A$main$2233
  0C:0CD8    A$main$2234
  0C:0CDA    A$main$2240
  0C:0CDA    C$main.c$62$1$1
  0C:0CDA    C$main.c$63$1$1
  0C:0CDA    XG$mp_addition$0$0
  0C:0CDB    A$main$2257
  0C:0CDB    C$main.c$66$1$1
  0C:0CDB    G$mp_substraction$0$0
  0C:0CDB    _mp_substraction
  0C:0CDE    A$main$2258
  0C:0CE1    A$main$2259
  0C:0CE4    A$main$2262
  0C:0CE4    C$main.c$70$1$1
  0C:0CE7    A$main$2265
  0C:0CE9    A$main$2266
  0C:0CEB    A$main$2268
  0C:0CEC    A$main$2269
  0C:0CED    A$main$2270
  0C:0CEF    A$main$2271
  0C:0CF0    A$main$2272
  0C:0CF2    A$main$2273
  0C:0CF4    A$main$2274
  0C:0CF6    A$main$2275
  0C:0CF7    A$main$2279
  0C:0CF7    C$main.c$74$2$2
  0C:0CF8    A$main$2280
  0C:0CFA    A$main$2281
  0C:0CFB    A$main$2282
  0C:0CFC    A$main$2283
  0C:0CFE    A$main$2284
  0C:0CFF    A$main$2285
  0C:0D01    A$main$2286
  0C:0D03    A$main$2287
  0C:0D05    A$main$2288
  0C:0D07    A$main$2289
  0C:0D0A    A$main$2290
  0C:0D0B    A$main$2291
  0C:0D0D    A$main$2292
  0C:0D0E    A$main$2293
  0C:0D10    A$main$2294
  0C:0D11    A$main$2295
  0C:0D12    A$main$2296
  0C:0D14    A$main$2297
  0C:0D15    A$main$2298
  0C:0D17    A$main$2299
  0C:0D19    A$main$2300
  0C:0D1B    A$main$2301
  0C:0D1D    A$main$2302
  0C:0D20    A$main$2303
  0C:0D21    A$main$2304
  0C:0D23    A$main$2305
  0C:0D24    A$main$2306
  0C:0D25    A$main$2307
  0C:0D26    A$main$2308
  0C:0D27    A$main$2309
  0C:0D28    A$main$2310
  0C:0D29    A$main$2311
  0C:0D2A    A$main$2312
  0C:0D2C    A$main$2313
  0C:0D2D    A$main$2314
  0C:0D2E    A$main$2315
  0C:0D30    A$main$2316
  0C:0D31    A$main$2317
  0C:0D32    A$main$2318
  0C:0D33    A$main$2319
  0C:0D34    A$main$2320
  0C:0D35    A$main$2321
  0C:0D36    A$main$2324
  0C:0D36    C$main.c$75$2$2
  0C:0D37    A$main$2325
  0C:0D38    A$main$2326
  0C:0D3A    A$main$2327
  0C:0D3D    A$main$2328
  0C:0D3F    A$main$2330
  0C:0D40    A$main$2331
  0C:0D41    A$main$2332
  0C:0D43    A$main$2333
  0C:0D44    A$main$2334
  0C:0D46    A$main$2335
  0C:0D47    A$main$2336
  0C:0D49    A$main$2339
  0C:0D49    C$main.c$76$2$2
  0C:0D4B    A$main$2340
  0C:0D4E    A$main$2343
  0C:0D4E    C$main.c$77$2$2
  0C:0D51    A$main$2344
  0C:0D53    A$main$2348
  0C:0D53    C$main.c$79$2$2
  0C:0D56    A$main$2352
  0C:0D56    C$main.c$80$2$2
  0C:0D57    A$main$2353
  0C:0D59    A$main$2354
  0C:0D5A    A$main$2355
  0C:0D5B    A$main$2356
  0C:0D5D    A$main$2357
  0C:0D5E    A$main$2358
  0C:0D60    A$main$2359
  0C:0D62    A$main$2360
  0C:0D64    A$main$2361
  0C:0D66    A$main$2362
  0C:0D67    A$main$2363
  0C:0D6A    A$main$2366
  0C:0D6A    C$main.c$72$1$1
  0C:0D6B    A$main$2367
  0C:0D6E    A$main$2368
  0C:0D6F    A$main$2372
  0C:0D6F    C$main.c$82$1$1
  0C:0D6F    XG$mp_substraction$0$0
  0C:0D72    A$main$2392
  0C:0D72    C$main.c$85$1$1
  0C:0D72    G$mp_multiplication$0$0
  0C:0D72    _mp_multiplication
  0C:0D75    A$main$2393
  0C:0D78    A$main$2394
  0C:0D7B    A$main$2397
  0C:0D7C    A$main$2398
  0C:0D7E    A$main$2399
  0C:0D80    A$main$2401
  0C:0D82    A$main$2402
  0C:0D84    A$main$2403
  0C:0D86    A$main$2406
  0C:0D86    C$main.c$93$2$2
  0C:0D88    A$main$2407
  0C:0D8A    A$main$2408
  0C:0D8B    A$main$2409
  0C:0D8D    A$main$2410
  0C:0D8F    A$main$2411
  0C:0D90    A$main$2412
  0C:0D92    A$main$2413
  0C:0D94    A$main$2414
  0C:0D96    A$main$2415
  0C:0D98    A$main$2416
  0C:0D99    A$main$2417
  0C:0D9C    A$main$2420
  0C:0D9C    C$main.c$91$1$1
  0C:0D9E    A$main$2421
  0C:0D9F    A$main$2422
  0C:0DA2    A$main$2423
  0C:0DA4    A$main$2424
  0C:0DA6    A$main$2428
  0C:0DA7    A$main$2429
  0C:0DA9    A$main$2430
  0C:0DAB    A$main$2432
  0C:0DAC    A$main$2433
  0C:0DAE    A$main$2434
  0C:0DB0    A$main$2435
  0C:0DB2    A$main$2436
  0C:0DB4    A$main$2437
  0C:0DB6    A$main$2438
  0C:0DB7    A$main$2444
  0C:0DB7    C$main.c$97$2$3
  0C:0DB8    A$main$2445
  0C:0DBA    A$main$2446
  0C:0DBC    A$main$2447
  0C:0DBE    A$main$2448
  0C:0DC0    A$main$2449
  0C:0DC2    A$main$2450
  0C:0DC4    A$main$2451
  0C:0DC5    A$main$2452
  0C:0DC7    A$main$2453
  0C:0DC9    A$main$2454
  0C:0DCA    A$main$2455
  0C:0DCC    A$main$2457
  0C:0DCD    A$main$2458
  0C:0DCF    A$main$2459
  0C:0DD1    A$main$2460
  0C:0DD3    A$main$2461
  0C:0DD5    A$main$2462
  0C:0DD7    A$main$2463
  0C:0DDA    A$main$2467
  0C:0DDA    C$main.c$100$3$4
  0C:0DDC    A$main$2468
  0C:0DDE    A$main$2469
  0C:0DDF    A$main$2470
  0C:0DE1    A$main$2471
  0C:0DE3    A$main$2472
  0C:0DE4    A$main$2473
  0C:0DE5    A$main$2474
  0C:0DE7    A$main$2475
  0C:0DE8    A$main$2476
  0C:0DE9    A$main$2477
  0C:0DEB    A$main$2478
  0C:0DEC    A$main$2479
  0C:0DEE    A$main$2480
  0C:0DF0    A$main$2481
  0C:0DF2    A$main$2482
  0C:0DF4    A$main$2483
  0C:0DF7    A$main$2484
  0C:0DF8    A$main$2485
  0C:0DFA    A$main$2486
  0C:0DFD    A$main$2487
  0C:0DFF    A$main$2488
  0C:0E01    A$main$2489
  0C:0E03    A$main$2490
  0C:0E06    A$main$2491
  0C:0E07    A$main$2492
  0C:0E09    A$main$2493
  0C:0E0B    A$main$2494
  0C:0E0D    A$main$2495
  0C:0E0F    A$main$2496
  0C:0E11    A$main$2497
  0C:0E12    A$main$2498
  0C:0E14    A$main$2499
  0C:0E16    A$main$2500
  0C:0E17    A$main$2501
  0C:0E19    A$main$2502
  0C:0E1B    A$main$2503
  0C:0E1D    A$main$2504
  0C:0E1F    A$main$2505
  0C:0E22    A$main$2506
  0C:0E23    A$main$2507
  0C:0E25    A$main$2508
  0C:0E26    A$main$2509
  0C:0E28    A$main$2510
  0C:0E29    A$main$2511
  0C:0E2B    A$main$2512
  0C:0E2D    A$main$2513
  0C:0E2E    A$main$2514
  0C:0E30    A$main$2515
  0C:0E31    A$main$2516
  0C:0E32    A$main$2517
  0C:0E34    A$main$2518
  0C:0E35    A$main$2519
  0C:0E36    A$main$2520
  0C:0E38    A$main$2521
  0C:0E3A    A$main$2522
  0C:0E3D    A$main$2523
  0C:0E40    A$main$2526
  0C:0E40    C$main.c$101$3$4
  0C:0E42    A$main$2527
  0C:0E44    A$main$2528
  0C:0E46    A$main$2529
  0C:0E48    A$main$2530
  0C:0E4A    A$main$2531
  0C:0E4C    A$main$2532
  0C:0E4E    A$main$2533
  0C:0E4F    A$main$2534
  0C:0E52    A$main$2537
  0C:0E52    C$main.c$103$3$4
  0C:0E55    A$main$2538
  0C:0E58    A$main$2541
  0C:0E58    C$main.c$98$2$3
  0C:0E5A    A$main$2542
  0C:0E5B    A$main$2543
  0C:0E5E    A$main$2544
  0C:0E60    A$main$2546
  0C:0E62    A$main$2547
  0C:0E64    A$main$2548
  0C:0E66    A$main$2549
  0C:0E69    A$main$2553
  0C:0E69    C$main.c$105$2$3
  0C:0E6B    A$main$2554
  0C:0E6D    A$main$2555
  0C:0E6E    A$main$2556
  0C:0E6F    A$main$2557
  0C:0E71    A$main$2558
  0C:0E72    A$main$2559
  0C:0E73    A$main$2560
  0C:0E75    A$main$2561
  0C:0E76    A$main$2562
  0C:0E77    A$main$2563
  0C:0E79    A$main$2564
  0C:0E7A    A$main$2565
  0C:0E7C    A$main$2566
  0C:0E7E    A$main$2567
  0C:0E80    A$main$2568
  0C:0E82    A$main$2569
  0C:0E84    A$main$2570
  0C:0E85    A$main$2571
  0C:0E88    A$main$2574
  0C:0E88    C$main.c$95$1$1
  0C:0E8A    A$main$2575
  0C:0E8B    A$main$2576
  0C:0E8E    A$main$2577
  0C:0E90    A$main$2581
  0C:0E90    C$main.c$107$1$1
  0C:0E90    XG$mp_multiplication$0$0
  0C:0E93    A$main$2596
  0C:0E93    C$main.c$110$1$1
  0C:0E93    G$copy$0$0
  0C:0E93    _copy
  0C:0E96    A$main$2597
  0C:0E99    A$main$2598
  0C:0E9C    A$main$2601
  0C:0E9E    A$main$2602
  0C:0EA0    A$main$2604
  0C:0EA1    A$main$2605
  0C:0EA2    A$main$2606
  0C:0EA4    A$main$2607
  0C:0EA5    A$main$2608
  0C:0EA7    A$main$2609
  0C:0EA9    A$main$2610
  0C:0EAB    A$main$2613
  0C:0EAB    C$main.c$116$2$2
  0C:0EAC    A$main$2614
  0C:0EAE    A$main$2615
  0C:0EAF    A$main$2616
  0C:0EB0    A$main$2617
  0C:0EB2    A$main$2618
  0C:0EB3    A$main$2619
  0C:0EB5    A$main$2620
  0C:0EB6    A$main$2621
  0C:0EB8    A$main$2622
  0C:0EB9    A$main$2623
  0C:0EBA    A$main$2624
  0C:0EBC    A$main$2625
  0C:0EBD    A$main$2626
  0C:0EBF    A$main$2627
  0C:0EC1    A$main$2628
  0C:0EC3    A$main$2629
  0C:0EC5    A$main$2630
  0C:0EC8    A$main$2631
  0C:0EC9    A$main$2632
  0C:0ECB    A$main$2633
  0C:0ECD    A$main$2634
  0C:0ECF    A$main$2635
  0C:0ED2    A$main$2638
  0C:0ED2    C$main.c$114$1$1
  0C:0ED3    A$main$2639
  0C:0ED6    A$main$2640
  0C:0ED7    A$main$2641
  0C:0ED9    A$main$2645
  0C:0ED9    C$main.c$118$1$1
  0C:0ED9    XG$copy$0$0
  0C:0EDA    A$main$2663
  0C:0EDA    C$main.c$121$1$1
  0C:0EDA    G$md_addition$0$0
  0C:0EDA    _md_addition
  0C:0EDC    A$main$2664
  0C:0EDE    A$main$2665
  0C:0EE0    A$main$2668
  0C:0EE0    C$main.c$124$1$1
  0C:0EE3    A$main$2669
  0C:0EE6    A$main$2670
  0C:0EE9    A$main$2671
  0C:0EEC    A$main$2672
  0C:0EEF    A$main$2673
  0C:0EF2    A$main$2674
  0C:0EF4    A$main$2675
  0C:0EF6    A$main$2676
  0C:0EF8    A$main$2677
  0C:0EFA    A$main$2678
  0C:0EFC    A$main$2679
  0C:0EFE    A$main$2680
  0C:0F01    A$main$2681
  0C:0F03    A$main$2682
  0C:0F05    A$main$2683
  0C:0F07    A$main$2686
  0C:0F07    C$main.c$125$1$1
  0C:0F09    A$main$2689
  0C:0F09    C$main.c$127$1$1
  0C:0F0B    A$main$2690
  0C:0F0D    A$main$2691
  0C:0F0F    A$main$2692
  0C:0F12    A$main$2693
  0C:0F15    A$main$2694
  0C:0F18    A$main$2695
  0C:0F1B    A$main$2696
  0C:0F1E    A$main$2697
  0C:0F21    A$main$2698
  0C:0F23    A$main$2699
  0C:0F25    A$main$2700
  0C:0F27    A$main$2701
  0C:0F29    A$main$2702
  0C:0F2C    A$main$2703
  0C:0F2E    A$main$2704
  0C:0F30    A$main$2705
  0C:0F32    A$main$2706
  0C:0F34    A$main$2709
  0C:0F34    C$main.c$129$1$1
  0C:0F36    A$main$2710
  0C:0F39    A$main$2712
  0C:0F3A    A$main$2713
  0C:0F3B    A$main$2714
  0C:0F3C    A$main$2715
  0C:0F3D    A$main$2716
  0C:0F3F    A$main$2719
  0C:0F3F    C$main.c$130$1$1
  0C:0F42    A$main$2720
  0C:0F45    A$main$2721
  0C:0F48    A$main$2722
  0C:0F4A    A$main$2723
  0C:0F4C    A$main$2724
  0C:0F4E    A$main$2727
  0C:0F4E    C$main.c$131$1$1
  0C:0F4E    XG$md_addition$0$0
  0C:0F51    A$main$2729
  0C:0F52    A$main$2746
  0C:0F52    C$main.c$134$1$1
  0C:0F52    G$md_substraction$0$0
  0C:0F52    _md_substraction
  0C:0F54    A$main$2747
  0C:0F56    A$main$2748
  0C:0F58    A$main$2751
  0C:0F58    C$main.c$137$1$1
  0C:0F5B    A$main$2752
  0C:0F5E    A$main$2753
  0C:0F61    A$main$2754
  0C:0F64    A$main$2755
  0C:0F67    A$main$2756
  0C:0F6A    A$main$2757
  0C:0F6C    A$main$2758
  0C:0F6E    A$main$2759
  0C:0F70    A$main$2760
  0C:0F72    A$main$2761
  0C:0F74    A$main$2762
  0C:0F76    A$main$2763
  0C:0F79    A$main$2764
  0C:0F7B    A$main$2765
  0C:0F7D    A$main$2766
  0C:0F7F    A$main$2771
  0C:0F7F    C$main.c$138$1$1
  0C:0F7F    C$main.c$140$1$1
  0C:0F81    A$main$2772
  0C:0F82    A$main$2773
  0C:0F84    A$main$2776
  0C:0F84    C$main.c$142$2$2
  0C:0F86    A$main$2777
  0C:0F88    A$main$2778
  0C:0F8A    A$main$2779
  0C:0F8D    A$main$2780
  0C:0F90    A$main$2781
  0C:0F93    A$main$2782
  0C:0F95    A$main$2783
  0C:0F97    A$main$2784
  0C:0F99    A$main$2787
  0C:0F99    C$main.c$144$2$1
  0C:0F99    XG$md_substraction$0$0
  0C:0F9C    A$main$2789
  0C:0F9D    A$main$2811
  0C:0F9D    C$main.c$147$2$1
  0C:0F9D    G$md_multiplication$0$0
  0C:0F9D    _md_multiplication
  0C:0FA0    A$main$2812
  0C:0FA3    A$main$2813
  0C:0FA6    A$main$2816
  0C:0FA6    C$main.c$153$1$1
  0C:0FA9    A$main$2817
  0C:0FAC    A$main$2818
  0C:0FAF    A$main$2819
  0C:0FB2    A$main$2820
  0C:0FB5    A$main$2821
  0C:0FB8    A$main$2822
  0C:0FBB    A$main$2823
  0C:0FBE    A$main$2824
  0C:0FC1    A$main$2825
  0C:0FC4    A$main$2828
  0C:0FC5    A$main$2829
  0C:0FC7    A$main$2830
  0C:0FC9    A$main$2831
  0C:0FCB    A$main$2832
  0C:0FCD    A$main$2833
  0C:0FCF    A$main$2835
  0C:0FD0    A$main$2836
  0C:0FD2    A$main$2837
  0C:0FD4    A$main$2838
  0C:0FD6    A$main$2839
  0C:0FD8    A$main$2840
  0C:0FDA    A$main$2841
  0C:0FDD    A$main$2845
  0C:0FDD    C$main.c$159$2$2
  0C:0FDE    A$main$2846
  0C:0FE0    A$main$2847
  0C:0FE2    A$main$2850
  0C:0FE2    C$main.c$160$2$2
  0C:0FE4    A$main$2851
  0C:0FE6    A$main$2852
  0C:0FE7    A$main$2853
  0C:0FE9    A$main$2854
  0C:0FEB    A$main$2855
  0C:0FEC    A$main$2856
  0C:0FEE    A$main$2857
  0C:0FF0    A$main$2858
  0C:0FF2    A$main$2859
  0C:0FF4    A$main$2860
  0C:0FF7    A$main$2861
  0C:0FF8    A$main$2862
  0C:0FFA    A$main$2863
  0C:0FFC    A$main$2864
  0C:0FFE    A$main$2865
  0C:1001    A$main$2866
  0C:1002    A$main$2867
  0C:1004    A$main$2868
  0C:1005    A$main$2869
  0C:1007    A$main$2872
  0C:1008    A$main$2873
  0C:100A    A$main$2874
  0C:100C    A$main$2875
  0C:100E    A$main$2877
  0C:100F    A$main$2878
  0C:1011    A$main$2879
  0C:1013    A$main$2880
  0C:1015    A$main$2881
  0C:1017    A$main$2882
  0C:1019    A$main$2883
  0C:101C    A$main$2887
  0C:101C    C$main.c$163$2$1
  0C:101E    A$main$2888
  0C:1020    A$main$2889
  0C:1022    A$main$2890
  0C:1024    A$main$2891
  0C:1026    A$main$2892
  0C:1027    A$main$2893
  0C:1029    A$main$2894
  0C:102B    A$main$2895
  0C:102C    A$main$2896
  0C:102D    A$main$2897
  0C:102F    A$main$2898
  0C:1030    A$main$2899
  0C:1031    A$main$2900
  0C:1033    A$main$2901
  0C:1034    A$main$2902
  0C:1036    A$main$2903
  0C:1038    A$main$2904
  0C:103A    A$main$2905
  0C:103C    A$main$2906
  0C:103F    A$main$2907
  0C:1040    A$main$2908
  0C:1042    A$main$2909
  0C:1044    A$main$2910
  0C:1046    A$main$2911
  0C:1047    A$main$2912
  0C:1049    A$main$2913
  0C:104B    A$main$2914
  0C:104C    A$main$2915
  0C:104E    A$main$2916
  0C:1050    A$main$2917
  0C:1052    A$main$2918
  0C:1054    A$main$2919
  0C:1057    A$main$2920
  0C:1058    A$main$2921
  0C:105A    A$main$2922
  0C:105D    A$main$2923
  0C:1060    A$main$2924
  0C:1063    A$main$2925
  0C:1065    A$main$2926
  0C:1067    A$main$2927
  0C:1069    A$main$2928
  0C:106B    A$main$2929
  0C:106D    A$main$2930
  0C:106F    A$main$2931
  0C:1072    A$main$2932
  0C:1074    A$main$2933
  0C:1076    A$main$2934
  0C:1078    A$main$2935
  0C:107A    A$main$2936
  0C:107C    A$main$2937
  0C:107E    A$main$2938
  0C:1080    A$main$2939
  0C:1082    A$main$2940
  0C:1083    A$main$2941
  0C:1084    A$main$2942
  0C:1085    A$main$2943
  0C:1086    A$main$2944
  0C:1087    A$main$2945
  0C:1088    A$main$2946
  0C:108A    A$main$2947
  0C:108B    A$main$2948
  0C:108C    A$main$2949
  0C:108E    A$main$2950
  0C:108F    A$main$2951
  0C:1090    A$main$2952
  0C:1092    A$main$2953
  0C:1094    A$main$2954
  0C:1097    A$main$2955
  0C:109A    A$main$2958
  0C:109A    C$main.c$164$3$3
  0C:109C    A$main$2959
  0C:109E    A$main$2960
  0C:10A0    A$main$2961
  0C:10A2    A$main$2962
  0C:10A4    A$main$2963
  0C:10A6    A$main$2964
  0C:10A8    A$main$2965
  0C:10A9    A$main$2966
  0C:10AC    A$main$2969
  0C:10AC    C$main.c$166$3$3
  0C:10AF    A$main$2970
  0C:10B2    A$main$2973
  0C:10B2    C$main.c$161$2$2
  0C:10B4    A$main$2974
  0C:10B5    A$main$2975
  0C:10B8    A$main$2976
  0C:10BA    A$main$2978
  0C:10BC    A$main$2979
  0C:10BE    A$main$2980
  0C:10C0    A$main$2981
  0C:10C3    A$main$2985
  0C:10C3    C$main.c$168$2$2
  0C:10C5    A$main$2986
  0C:10C7    A$main$2987
  0C:10C8    A$main$2988
  0C:10C9    A$main$2989
  0C:10CB    A$main$2990
  0C:10CC    A$main$2991
  0C:10CD    A$main$2992
  0C:10CF    A$main$2993
  0C:10D0    A$main$2994
  0C:10D1    A$main$2995
  0C:10D3    A$main$2996
  0C:10D4    A$main$2997
  0C:10D6    A$main$2998
  0C:10D8    A$main$2999
  0C:10DA    A$main$3000
  0C:10DC    A$main$3001
  0C:10DF    A$main$3002
  0C:10E0    A$main$3003
  0C:10E2    A$main$3004
  0C:10E3    A$main$3005
  0C:10E4    A$main$3006
  0C:10E5    A$main$3007
  0C:10E7    A$main$3008
  0C:10E9    A$main$3009
  0C:10EB    A$main$3010
  0C:10EE    A$main$3013
  0C:10EE    C$main.c$157$1$1
  0C:10F0    A$main$3014
  0C:10F1    A$main$3015
  0C:10F4    A$main$3016
  0C:10F6    A$main$3018
  0C:10F9    A$main$3022
  0C:10F9    C$main.c$172$1$1
  0C:10FB    A$main$3023
  0C:10FD    A$main$3024
  0C:10FF    A$main$3025
  0C:1100    A$main$3026
  0C:1102    A$main$3027
  0C:1104    A$main$3028
  0C:1107    A$main$3029
  0C:110A    A$main$3030
  0C:110D    A$main$3031
  0C:1110    A$main$3032
  0C:1113    A$main$3033
  0C:1116    A$main$3034
  0C:1119    A$main$3035
  0C:111C    A$main$3038
  0C:111C    C$main.c$174$1$1
  0C:111E    A$main$3039
  0C:1120    A$main$3042
  0C:1120    C$main.c$176$2$4
  0C:1122    A$main$3043
  0C:1124    A$main$3044
  0C:1126    A$main$3045
  0C:1127    A$main$3046
  0C:1129    A$main$3047
  0C:112B    A$main$3048
  0C:112E    A$main$3049
  0C:1131    A$main$3050
  0C:1134    A$main$3051
  0C:1137    A$main$3054
  0C:1137    C$main.c$178$2$1
  0C:1137    XG$md_multiplication$0$0
  0C:113A    A$main$3056
  0C:113B    A$main$3070
  0C:113B    C$main.c$180$2$1
  0C:113B    C$main.c$184$1$1
  0C:113B    G$main$0$0
  0C:113B    _main
  0C:113E    A$main$3071
  0C:1140    A$main$3072
  0C:1141    A$main$3075
  0C:1141    C$main.c$204$1$1
  0C:1144    A$main$3076
  0C:1147    A$main$3077
  0C:114A    A$main$3078
  0C:114D    A$main$3079
  0C:1150    A$main$3080
  0C:1153    A$main$3081
  0C:1156    A$main$3082
  0C:1159    A$main$3083
  0C:115C    A$main$3084
  0C:115F    A$main$3085
  0C:1162    A$main$3086
  0C:1165    A$main$3087
  0C:1168    A$main$3088
  0C:116B    A$main$3089
  0C:116E    A$main$3092
  0C:116E    C$main.c$208$1$1
  0C:1171    A$main$3093
  0C:1173    A$main$3094
  0C:1174    A$main$3097
  0C:1174    C$main.c$210$1$1
  0C:1177    A$main$3100
  0C:1177    C$main.c$211$1$1
  0C:1177    XG$main$0$0
  0C:1178    __gptrput
  0C:1191    __mulint
  0C:1191    __mulint_dummy
  0C:11AE    __gptrget
  0C:11CA    __sdcc_external_startup


ASxxxx Linker V01.75 + NoICE + SDCC Feb 1999,  page 1.

Files Linked      [ module(s) ]

main.rel        

Libraries Linked            [   object  file   ]

/usr/share/sdcc/lib/small/mcs51.lib    [     crtclear.rel ]
/usr/share/sdcc/lib/small/mcs51.lib    [     crtxinit.rel ]
/usr/share/sdcc/lib/small/libsdcc.lib    [     _gptrput.rel ]
/usr/share/sdcc/lib/small/libint.lib    [      _mulint.rel ]
/usr/share/sdcc/lib/small/mcs51.lib    [    crtxclear.rel ]
/usr/share/sdcc/lib/small/mcs51.lib    [   crtpagesfr.rel ]
/usr/share/sdcc/lib/small/mcs51.lib    [     crtstart.rel ]
/usr/share/sdcc/lib/small/libsdcc.lib    [     _gptrget.rel ]
/usr/share/sdcc/lib/small/libsdcc.lib    [     _startup.rel ]

ASxxxx Linker V01.75 + NoICE + SDCC Feb 1999,  page 2.

User Base Address Definitions

HOME = 0x0000
ISEG = 0x0000
BSEG = 0x0000

